target datalayout = "e-m:e-p270:32:32-p271:32:32-p272:64:64-i64:64-i128:128-f80:128-n8:16:32:64-S128"
target triple = "x86_64-pc-linux-gnu"

%class.NumberlikeArray = type { i32, i32, ptr }

@_ZTIPKc = external constant ptr
@.str.6 = private unnamed_addr constant [74 x i8] c"BigUnsigned::to<Primitive>: Value is too big to fit in the requested type\00", align 1

; Function Attrs: mustprogress uwtable
define linkonce_odr noundef zeroext i16 @_ZNK11BigUnsigned18convertToPrimitiveItEET_v(ptr noundef nonnull align 8 dereferenceable(16) %0) #0 comdat align 2 {
  %2 = alloca i16, align 2
  %3 = alloca ptr, align 8
  %4 = alloca i16, align 2
  %5 = alloca i32, align 4
  store ptr %0, ptr %3, align 8, !tbaa !6
  %6 = load ptr, ptr %3, align 8
  %7 = getelementptr inbounds nuw %class.NumberlikeArray, ptr %6, i32 0, i32 1
  %8 = load i32, ptr %7, align 4, !tbaa !19
  %9 = icmp eq i32 %8, 0
  br i1 %9, label %10, label %11

10:                                               ; preds = %1
  store i16 0, ptr %2, align 2
  br label %37

11:                                               ; preds = %1
  %12 = getelementptr inbounds nuw %class.NumberlikeArray, ptr %6, i32 0, i32 1
  %13 = load i32, ptr %12, align 4, !tbaa !19
  %14 = icmp eq i32 %13, 1
  br i1 %14, label %15, label %34

15:                                               ; preds = %11
  call void @llvm.lifetime.start.p0(i64 2, ptr %4) #7
  %16 = getelementptr inbounds nuw %class.NumberlikeArray, ptr %6, i32 0, i32 2
  %17 = load ptr, ptr %16, align 8, !tbaa !20
  %18 = getelementptr inbounds i64, ptr %17, i64 0
  %19 = load i64, ptr %18, align 8, !tbaa !11
  %20 = trunc i64 %19 to i16
  store i16 %20, ptr %4, align 2, !tbaa !22
  %21 = load i16, ptr %4, align 2, !tbaa !22
  %22 = zext i16 %21 to i64
  %23 = getelementptr inbounds nuw %class.NumberlikeArray, ptr %6, i32 0, i32 2
  %24 = load ptr, ptr %23, align 8, !tbaa !20
  %25 = getelementptr inbounds i64, ptr %24, i64 0
  %26 = load i64, ptr %25, align 8, !tbaa !11
  %27 = icmp eq i64 %22, %26
  br i1 %27, label %28, label %30

28:                                               ; preds = %15
  %29 = load i16, ptr %4, align 2, !tbaa !22
  store i16 %29, ptr %2, align 2
  store i32 1, ptr %5, align 4
  br label %31

30:                                               ; preds = %15
  store i32 0, ptr %5, align 4
  br label %31

31:                                               ; preds = %30, %28
  call void @llvm.lifetime.end.p0(i64 2, ptr %4) #7
  %32 = load i32, ptr %5, align 4
  switch i32 %32, label %39 [
    i32 0, label %33
    i32 1, label %37
  ]

33:                                               ; preds = %31
  br label %34

34:                                               ; preds = %33, %11
  br label %35

35:                                               ; preds = %34
  %36 = call ptr @__cxa_allocate_exception(i64 8) #7
  store ptr @.str.6, ptr %36, align 16, !tbaa !24
  call void @__cxa_throw(ptr %36, ptr @_ZTIPKc, ptr null) #9
  unreachable

37:                                               ; preds = %31, %10
  %38 = load i16, ptr %2, align 2
  ret i16 %38

39:                                               ; preds = %31
  unreachable
}

; Function Attrs: mustprogress uwtable
define noundef zeroext i16 @_ZNK11BigUnsigned15toUnsignedShortEv(ptr noundef nonnull align 8 dereferenceable(16) %0) #0 align 2 {
  %2 = alloca ptr, align 8
  store ptr %0, ptr %2, align 8, !tbaa !6
  %3 = load ptr, ptr %2, align 8
  %4 = call noundef zeroext i16 @_ZNK11BigUnsigned18convertToPrimitiveItEET_v(ptr noundef nonnull align 8 dereferenceable(16) %3)
  ret i16 %4
}